---
triple:          'arm64-apple-darwin'
binary-path:     '/Users/davidphume/Documents/LEARN/CPP/smart_pointers/vscode/unique_A'
relocations:
  - { offsetInCU: 0x33A1, offset: 0x33A1, size: 0x8, addend: 0x0, symName: __ZNSt3__124__put_character_sequenceB8ue170006IcNS_11char_traitsIcEEEERNS_13basic_ostreamIT_T0_EES7_PKS4_m, symObjAddr: 0x7C0, symBinAddr: 0x100003160, symSize: 0x1EC }
  - { offsetInCU: 0x4D07, offset: 0x4D07, size: 0x8, addend: 0x0, symName: __ZNSt3__111make_uniqueB8ue170006IiJiEEENS_11__unique_ifIT_E15__unique_singleEDpOT0_, symObjAddr: 0x1DC, symBinAddr: 0x100002B7C, symSize: 0x44 }
  - { offsetInCU: 0x4D49, offset: 0x4D49, size: 0x8, addend: 0x0, symName: __ZNSt3__1lsB8ue170006INS_11char_traitsIcEEEERNS_13basic_ostreamIcT_EES6_PKc, symObjAddr: 0x220, symBinAddr: 0x100002BC0, symSize: 0x48 }
  - { offsetInCU: 0x4D8F, offset: 0x4D8F, size: 0x8, addend: 0x0, symName: __ZNSt3__14endlB8ue170006IcNS_11char_traitsIcEEEERNS_13basic_ostreamIT_T0_EES7_, symObjAddr: 0x2BC, symBinAddr: 0x100002C5C, symSize: 0x58 }
  - { offsetInCU: 0x4DCF, offset: 0x4DCF, size: 0x8, addend: 0x0, symName: __ZNSt3__116__pad_and_outputB8ue170006IcNS_11char_traitsIcEEEENS_19ostreambuf_iteratorIT_T0_EES6_PKS4_S8_S8_RNS_8ios_baseES4_, symObjAddr: 0x9FC, symBinAddr: 0x10000339C, symSize: 0x240 }
  - { offsetInCU: 0x4E9E, offset: 0x4E9E, size: 0x8, addend: 0x0, symName: __ZNSt3__112__to_addressB8ue170006IKcEEPT_S3_, symObjAddr: 0xF64, symBinAddr: 0x100003904, symSize: 0x14 }
  - { offsetInCU: 0x4F06, offset: 0x4F06, size: 0x8, addend: 0x0, symName: __ZNSt3__19use_facetB8ue170006INS_5ctypeIcEEEERKT_RKNS_6localeE, symObjAddr: 0x11E4, symBinAddr: 0x100003B84, symSize: 0x2C }
  - { offsetInCU: 0x53D3, offset: 0x53D3, size: 0x8, addend: 0x0, symName: __ZNSt3__118__constexpr_strlenB8ue170006EPKc, symObjAddr: 0x127C, symBinAddr: 0x100003C1C, symSize: 0x24 }
  - { offsetInCU: 0x7AFD, offset: 0x7AFD, size: 0x8, addend: 0x0, symName: _main, symObjAddr: 0x0, symBinAddr: 0x1000029A0, symSize: 0x1DC }
  - { offsetInCU: 0x7B33, offset: 0x7B33, size: 0x8, addend: 0x0, symName: __ZNKSt3__110unique_ptrIiNS_14default_deleteIiEEEdeB8ue170006Ev, symObjAddr: 0x268, symBinAddr: 0x100002C08, symSize: 0x28 }
  - { offsetInCU: 0x7B57, offset: 0x7B57, size: 0x8, addend: 0x0, symName: __ZNSt3__113basic_ostreamIcNS_11char_traitsIcEEElsB8ue170006EPFRS3_S4_E, symObjAddr: 0x290, symBinAddr: 0x100002C30, symSize: 0x2C }
  - { offsetInCU: 0x7B89, offset: 0x7B89, size: 0x8, addend: 0x0, symName: __ZNSt3__110unique_ptrIiNS_14default_deleteIiEEEC1B8ue170006EOS3_, symObjAddr: 0x314, symBinAddr: 0x100002CB4, symSize: 0x34 }
  - { offsetInCU: 0x7BBF, offset: 0x7BBF, size: 0x8, addend: 0x0, symName: __ZNKSt3__110unique_ptrIiNS_14default_deleteIiEEEcvbB8ue170006Ev, symObjAddr: 0x348, symBinAddr: 0x100002CE8, symSize: 0x34 }
  - { offsetInCU: 0x7BE3, offset: 0x7BE3, size: 0x8, addend: 0x0, symName: __ZNSt3__110unique_ptrIiNS_14default_deleteIiEEED1B8ue170006Ev, symObjAddr: 0x37C, symBinAddr: 0x100002D1C, symSize: 0x2C }
  - { offsetInCU: 0x7C0B, offset: 0x7C0B, size: 0x8, addend: 0x0, symName: __ZNSt3__110unique_ptrIiNS_14default_deleteIiEEEC1B8ue170006ILb1EvEEPi, symObjAddr: 0x3A8, symBinAddr: 0x100002D48, symSize: 0x34 }
  - { offsetInCU: 0x7C4C, offset: 0x7C4C, size: 0x8, addend: 0x0, symName: __ZNSt3__110unique_ptrIiNS_14default_deleteIiEEEC2B8ue170006ILb1EvEEPi, symObjAddr: 0x3DC, symBinAddr: 0x100002D7C, symSize: 0x44 }
  - { offsetInCU: 0x7C92, offset: 0x7C92, size: 0x8, addend: 0x0, symName: __ZNSt3__117__compressed_pairIPiNS_14default_deleteIiEEEC1B8ue170006IRS1_NS_16__value_init_tagEEEOT_OT0_, symObjAddr: 0x420, symBinAddr: 0x100002DC0, symSize: 0x3C }
  - { offsetInCU: 0x7CE8, offset: 0x7CE8, size: 0x8, addend: 0x0, symName: __ZNSt3__117__compressed_pairIPiNS_14default_deleteIiEEEC2B8ue170006IRS1_NS_16__value_init_tagEEEOT_OT0_, symObjAddr: 0x468, symBinAddr: 0x100002E08, symSize: 0x40 }
  - { offsetInCU: 0x7D3E, offset: 0x7D3E, size: 0x8, addend: 0x0, symName: __ZNSt3__122__compressed_pair_elemIPiLi0ELb0EEC2B8ue170006IRS1_vEEOT_, symObjAddr: 0x4A8, symBinAddr: 0x100002E48, symSize: 0x24 }
  - { offsetInCU: 0x7D7E, offset: 0x7D7E, size: 0x8, addend: 0x0, symName: __ZNSt3__122__compressed_pair_elemINS_14default_deleteIiEELi1ELb1EEC2B8ue170006ENS_16__value_init_tagE, symObjAddr: 0x4CC, symBinAddr: 0x100002E6C, symSize: 0x14 }
  - { offsetInCU: 0x7DB0, offset: 0x7DB0, size: 0x8, addend: 0x0, symName: __ZNSt3__110unique_ptrIiNS_14default_deleteIiEEED2B8ue170006Ev, symObjAddr: 0x4E0, symBinAddr: 0x100002E80, symSize: 0x30 }
  - { offsetInCU: 0x7DD8, offset: 0x7DD8, size: 0x8, addend: 0x0, symName: __ZNSt3__110unique_ptrIiNS_14default_deleteIiEEE5resetB8ue170006EPi, symObjAddr: 0x510, symBinAddr: 0x100002EB0, symSize: 0x78 }
  - { offsetInCU: 0x7E1A, offset: 0x7E1A, size: 0x8, addend: 0x0, symName: __ZNSt3__117__compressed_pairIPiNS_14default_deleteIiEEE5firstB8ue170006Ev, symObjAddr: 0x588, symBinAddr: 0x100002F28, symSize: 0x24 }
  - { offsetInCU: 0x7E3E, offset: 0x7E3E, size: 0x8, addend: 0x0, symName: __ZNSt3__117__compressed_pairIPiNS_14default_deleteIiEEE6secondB8ue170006Ev, symObjAddr: 0x5AC, symBinAddr: 0x100002F4C, symSize: 0x24 }
  - { offsetInCU: 0x7E62, offset: 0x7E62, size: 0x8, addend: 0x0, symName: __ZNKSt3__114default_deleteIiEclB8ue170006EPi, symObjAddr: 0x5D0, symBinAddr: 0x100002F70, symSize: 0x44 }
  - { offsetInCU: 0x7E94, offset: 0x7E94, size: 0x8, addend: 0x0, symName: __ZNSt3__122__compressed_pair_elemIPiLi0ELb0EE5__getB8ue170006Ev, symObjAddr: 0x614, symBinAddr: 0x100002FB4, symSize: 0x14 }
  - { offsetInCU: 0x7EB8, offset: 0x7EB8, size: 0x8, addend: 0x0, symName: __ZNSt3__122__compressed_pair_elemINS_14default_deleteIiEELi1ELb1EE5__getB8ue170006Ev, symObjAddr: 0x628, symBinAddr: 0x100002FC8, symSize: 0x14 }
  - { offsetInCU: 0x7EDC, offset: 0x7EDC, size: 0x8, addend: 0x0, symName: __ZNSt3__110unique_ptrIiNS_14default_deleteIiEEEC2B8ue170006EOS3_, symObjAddr: 0x63C, symBinAddr: 0x100002FDC, symSize: 0x60 }
  - { offsetInCU: 0x7F12, offset: 0x7F12, size: 0x8, addend: 0x0, symName: __ZNSt3__110unique_ptrIiNS_14default_deleteIiEEE7releaseB8ue170006Ev, symObjAddr: 0x69C, symBinAddr: 0x10000303C, symSize: 0x44 }
  - { offsetInCU: 0x7F45, offset: 0x7F45, size: 0x8, addend: 0x0, symName: __ZNSt3__110unique_ptrIiNS_14default_deleteIiEEE11get_deleterB8ue170006Ev, symObjAddr: 0x6E0, symBinAddr: 0x100003080, symSize: 0x24 }
  - { offsetInCU: 0x7F73, offset: 0x7F73, size: 0x8, addend: 0x0, symName: __ZNSt3__117__compressed_pairIPiNS_14default_deleteIiEEEC1B8ue170006IS1_S3_EEOT_OT0_, symObjAddr: 0x704, symBinAddr: 0x1000030A4, symSize: 0x3C }
  - { offsetInCU: 0x7FC9, offset: 0x7FC9, size: 0x8, addend: 0x0, symName: __ZNSt3__117__compressed_pairIPiNS_14default_deleteIiEEEC2B8ue170006IS1_S3_EEOT_OT0_, symObjAddr: 0x740, symBinAddr: 0x1000030E0, symSize: 0x44 }
  - { offsetInCU: 0x801F, offset: 0x801F, size: 0x8, addend: 0x0, symName: __ZNSt3__122__compressed_pair_elemIPiLi0ELb0EEC2B8ue170006IS1_vEEOT_, symObjAddr: 0x784, symBinAddr: 0x100003124, symSize: 0x24 }
  - { offsetInCU: 0x805F, offset: 0x805F, size: 0x8, addend: 0x0, symName: __ZNSt3__122__compressed_pair_elemINS_14default_deleteIiEELi1ELb1EEC2B8ue170006IS2_vEEOT_, symObjAddr: 0x7A8, symBinAddr: 0x100003148, symSize: 0x18 }
  - { offsetInCU: 0x809F, offset: 0x809F, size: 0x8, addend: 0x0, symName: __ZNSt3__111char_traitsIcE6lengthB8ue170006EPKc, symObjAddr: 0x9AC, symBinAddr: 0x10000334C, symSize: 0x34 }
  - { offsetInCU: 0x80DF, offset: 0x80DF, size: 0x8, addend: 0x0, symName: __ZNKSt3__113basic_ostreamIcNS_11char_traitsIcEEE6sentrycvbB8ue170006Ev, symObjAddr: 0x9E0, symBinAddr: 0x100003380, symSize: 0x1C }
  - { offsetInCU: 0x8103, offset: 0x8103, size: 0x8, addend: 0x0, symName: __ZNSt3__119ostreambuf_iteratorIcNS_11char_traitsIcEEEC1B8ue170006ERNS_13basic_ostreamIcS2_EE, symObjAddr: 0xC3C, symBinAddr: 0x1000035DC, symSize: 0x34 }
  - { offsetInCU: 0x8139, offset: 0x8139, size: 0x8, addend: 0x0, symName: __ZNKSt3__18ios_base5flagsB8ue170006Ev, symObjAddr: 0xC70, symBinAddr: 0x100003610, symSize: 0x18 }
  - { offsetInCU: 0x815F, offset: 0x815F, size: 0x8, addend: 0x0, symName: __ZNKSt3__19basic_iosIcNS_11char_traitsIcEEE4fillB8ue170006Ev, symObjAddr: 0xC88, symBinAddr: 0x100003628, symSize: 0x64 }
  - { offsetInCU: 0x8185, offset: 0x8185, size: 0x8, addend: 0x0, symName: __ZNKSt3__119ostreambuf_iteratorIcNS_11char_traitsIcEEE6failedB8ue170006Ev, symObjAddr: 0xCEC, symBinAddr: 0x10000368C, symSize: 0x24 }
  - { offsetInCU: 0x81A9, offset: 0x81A9, size: 0x8, addend: 0x0, symName: __ZNSt3__19basic_iosIcNS_11char_traitsIcEEE8setstateB8ue170006Ej, symObjAddr: 0xD10, symBinAddr: 0x1000036B0, symSize: 0x2C }
  - { offsetInCU: 0x81DC, offset: 0x81DC, size: 0x8, addend: 0x0, symName: __ZNKSt3__18ios_base5widthB8ue170006Ev, symObjAddr: 0xD3C, symBinAddr: 0x1000036DC, symSize: 0x18 }
  - { offsetInCU: 0x8202, offset: 0x8202, size: 0x8, addend: 0x0, symName: __ZNSt3__115basic_streambufIcNS_11char_traitsIcEEE5sputnB8ue170006EPKcl, symObjAddr: 0xD54, symBinAddr: 0x1000036F4, symSize: 0x3C }
  - { offsetInCU: 0x8242, offset: 0x8242, size: 0x8, addend: 0x0, symName: __ZNSt3__112basic_stringIcNS_11char_traitsIcEENS_9allocatorIcEEEC1B8ue170006Emc, symObjAddr: 0xD90, symBinAddr: 0x100003730, symSize: 0x3C }
  - { offsetInCU: 0x8288, offset: 0x8288, size: 0x8, addend: 0x0, symName: __ZNKSt3__112basic_stringIcNS_11char_traitsIcEENS_9allocatorIcEEE4dataB8ue170006Ev, symObjAddr: 0xDCC, symBinAddr: 0x10000376C, symSize: 0x28 }
  - { offsetInCU: 0x82AC, offset: 0x82AC, size: 0x8, addend: 0x0, symName: __ZNSt3__18ios_base5widthB8ue170006El, symObjAddr: 0xDF4, symBinAddr: 0x100003794, symSize: 0x2C }
  - { offsetInCU: 0x82F0, offset: 0x82F0, size: 0x8, addend: 0x0, symName: __ZNSt3__112basic_stringIcNS_11char_traitsIcEENS_9allocatorIcEEEC2B8ue170006Emc, symObjAddr: 0xE20, symBinAddr: 0x1000037C0, symSize: 0x4C }
  - { offsetInCU: 0x833B, offset: 0x833B, size: 0x8, addend: 0x0, symName: __ZNSt3__117__compressed_pairINS_12basic_stringIcNS_11char_traitsIcEENS_9allocatorIcEEE5__repES5_EC1B8ue170006INS_18__default_init_tagESA_EEOT_OT0_, symObjAddr: 0xE6C, symBinAddr: 0x10000380C, symSize: 0x3C }
  - { offsetInCU: 0x8391, offset: 0x8391, size: 0x8, addend: 0x0, symName: __ZNSt3__117__compressed_pairINS_12basic_stringIcNS_11char_traitsIcEENS_9allocatorIcEEE5__repES5_EC2B8ue170006INS_18__default_init_tagESA_EEOT_OT0_, symObjAddr: 0xEA8, symBinAddr: 0x100003848, symSize: 0x3C }
  - { offsetInCU: 0x83E7, offset: 0x83E7, size: 0x8, addend: 0x0, symName: __ZNSt3__122__compressed_pair_elemINS_12basic_stringIcNS_11char_traitsIcEENS_9allocatorIcEEE5__repELi0ELb0EEC2B8ue170006ENS_18__default_init_tagE, symObjAddr: 0xEE4, symBinAddr: 0x100003884, symSize: 0x14 }
  - { offsetInCU: 0x8419, offset: 0x8419, size: 0x8, addend: 0x0, symName: __ZNSt3__122__compressed_pair_elemINS_9allocatorIcEELi1ELb1EEC2B8ue170006ENS_18__default_init_tagE, symObjAddr: 0xEF8, symBinAddr: 0x100003898, symSize: 0x2C }
  - { offsetInCU: 0x844B, offset: 0x844B, size: 0x8, addend: 0x0, symName: __ZNSt3__19allocatorIcEC2B8ue170006Ev, symObjAddr: 0xF24, symBinAddr: 0x1000038C4, symSize: 0x2C }
  - { offsetInCU: 0x8473, offset: 0x8473, size: 0x8, addend: 0x0, symName: __ZNSt3__116__non_trivial_ifILb1ENS_9allocatorIcEEEC2B8ue170006Ev, symObjAddr: 0xF50, symBinAddr: 0x1000038F0, symSize: 0x14 }
  - { offsetInCU: 0x849B, offset: 0x849B, size: 0x8, addend: 0x0, symName: __ZNKSt3__112basic_stringIcNS_11char_traitsIcEENS_9allocatorIcEEE13__get_pointerB8ue170006Ev, symObjAddr: 0xF78, symBinAddr: 0x100003918, symSize: 0x54 }
  - { offsetInCU: 0x84BF, offset: 0x84BF, size: 0x8, addend: 0x0, symName: __ZNKSt3__112basic_stringIcNS_11char_traitsIcEENS_9allocatorIcEEE9__is_longB8ue170006Ev, symObjAddr: 0xFCC, symBinAddr: 0x10000396C, symSize: 0x38 }
  - { offsetInCU: 0x84E3, offset: 0x84E3, size: 0x8, addend: 0x0, symName: __ZNKSt3__112basic_stringIcNS_11char_traitsIcEENS_9allocatorIcEEE18__get_long_pointerB8ue170006Ev, symObjAddr: 0x1004, symBinAddr: 0x1000039A4, symSize: 0x28 }
  - { offsetInCU: 0x8507, offset: 0x8507, size: 0x8, addend: 0x0, symName: __ZNKSt3__112basic_stringIcNS_11char_traitsIcEENS_9allocatorIcEEE19__get_short_pointerB8ue170006Ev, symObjAddr: 0x102C, symBinAddr: 0x1000039CC, symSize: 0x28 }
  - { offsetInCU: 0x852B, offset: 0x852B, size: 0x8, addend: 0x0, symName: __ZNKSt3__117__compressed_pairINS_12basic_stringIcNS_11char_traitsIcEENS_9allocatorIcEEE5__repES5_E5firstB8ue170006Ev, symObjAddr: 0x1054, symBinAddr: 0x1000039F4, symSize: 0x24 }
  - { offsetInCU: 0x854F, offset: 0x854F, size: 0x8, addend: 0x0, symName: __ZNKSt3__122__compressed_pair_elemINS_12basic_stringIcNS_11char_traitsIcEENS_9allocatorIcEEE5__repELi0ELb0EE5__getB8ue170006Ev, symObjAddr: 0x1078, symBinAddr: 0x100003A18, symSize: 0x14 }
  - { offsetInCU: 0x8574, offset: 0x8574, size: 0x8, addend: 0x0, symName: __ZNSt3__114pointer_traitsIPKcE10pointer_toB8ue170006ERS1_, symObjAddr: 0x108C, symBinAddr: 0x100003A2C, symSize: 0x14 }
  - { offsetInCU: 0x8595, offset: 0x8595, size: 0x8, addend: 0x0, symName: __ZNSt3__119ostreambuf_iteratorIcNS_11char_traitsIcEEEC2B8ue170006ERNS_13basic_ostreamIcS2_EE, symObjAddr: 0x10A0, symBinAddr: 0x100003A40, symSize: 0x54 }
  - { offsetInCU: 0x85CB, offset: 0x85CB, size: 0x8, addend: 0x0, symName: __ZNKSt3__19basic_iosIcNS_11char_traitsIcEEE5rdbufB8ue170006Ev, symObjAddr: 0x10F4, symBinAddr: 0x100003A94, symSize: 0x24 }
  - { offsetInCU: 0x85F1, offset: 0x85F1, size: 0x8, addend: 0x0, symName: __ZNKSt3__18ios_base5rdbufB8ue170006Ev, symObjAddr: 0x1118, symBinAddr: 0x100003AB8, symSize: 0x18 }
  - { offsetInCU: 0x8616, offset: 0x8616, size: 0x8, addend: 0x0, symName: __ZNSt3__111char_traitsIcE11eq_int_typeB8ue170006Eii, symObjAddr: 0x1130, symBinAddr: 0x100003AD0, symSize: 0x28 }
  - { offsetInCU: 0x8648, offset: 0x8648, size: 0x8, addend: 0x0, symName: __ZNSt3__111char_traitsIcE3eofB8ue170006Ev, symObjAddr: 0x1158, symBinAddr: 0x100003AF8, symSize: 0x8 }
  - { offsetInCU: 0x865B, offset: 0x865B, size: 0x8, addend: 0x0, symName: __ZNKSt3__19basic_iosIcNS_11char_traitsIcEEE5widenB8ue170006Ec, symObjAddr: 0x1160, symBinAddr: 0x100003B00, symSize: 0x84 }
  - { offsetInCU: 0x86C7, offset: 0x86C7, size: 0x8, addend: 0x0, symName: __ZNKSt3__15ctypeIcE5widenB8ue170006Ec, symObjAddr: 0x1210, symBinAddr: 0x100003BB0, symSize: 0x38 }
  - { offsetInCU: 0x86FA, offset: 0x86FA, size: 0x8, addend: 0x0, symName: __ZNSt3__18ios_base8setstateB8ue170006Ej, symObjAddr: 0x1248, symBinAddr: 0x100003BE8, symSize: 0x34 }
  - { offsetInCU: 0x872F, offset: 0x872F, size: 0x8, addend: 0x0, symName: __ZNKSt3__117__compressed_pairIPiNS_14default_deleteIiEEE5firstB8ue170006Ev, symObjAddr: 0x12A0, symBinAddr: 0x100003C40, symSize: 0x24 }
  - { offsetInCU: 0x8753, offset: 0x8753, size: 0x8, addend: 0x0, symName: __ZNKSt3__122__compressed_pair_elemIPiLi0ELb0EE5__getB8ue170006Ev, symObjAddr: 0x12C4, symBinAddr: 0x100003C64, symSize: 0x14 }
...
